; Function Attrs: mustprogress uwtable
define noundef zeroext i1 @_ZN32pxrInternal_v0_24__pxrReserved__18TraceSerialization5WriteERSoRKSt6vectorISt10shared_ptrINS_15TraceCollectionEESaIS5_EE(ptr noundef nonnull align 8 dereferenceable(8) %0, ptr noundef nonnull align 8 dereferenceable(24) %1) local_unnamed_addr #0 align 2 personality ptr @__gxx_personality_v0 {
  %3 = alloca %"class.pxrInternal_v0_24__pxrReserved__::JsValue", align 8
  %4 = alloca %"class.pxrInternal_v0_24__pxrReserved__::TfScopeDescription", align 8
  %5 = alloca %"class.pxrInternal_v0_24__pxrReserved__::TfCallContext", align 8
  %6 = alloca %"class.pxrInternal_v0_24__pxrReserved__::JsWriter", align 8
  call void @_ZN32pxrInternal_v0_24__pxrReserved__7JsValueC1Ev(ptr noundef nonnull align 8 dereferenceable(16) %3)
  %7 = load ptr, ptr %1, align 8
  %8 = getelementptr inbounds nuw i8, ptr %1, i64 8
  %9 = load ptr, ptr %8, align 8
  %10 = icmp ne ptr %7, %9
  br i1 %10, label %11, label %27

11:                                               ; preds = %2
  store ptr @.str.1, ptr %5, align 8
  %12 = getelementptr inbounds nuw i8, ptr %5, i64 8
  store ptr @__func__._ZN32pxrInternal_v0_24__pxrReserved__18TraceSerialization5WriteERSoRKSt6vectorISt10shared_ptrINS_15TraceCollectionEESaIS5_EE, ptr %12, align 8
  %13 = getelementptr inbounds nuw i8, ptr %5, i64 16
  store i64 38, ptr %13, align 8
  %14 = getelementptr inbounds nuw i8, ptr %5, i64 24
  store ptr @__PRETTY_FUNCTION__._ZN32pxrInternal_v0_24__pxrReserved__18TraceSerialization5WriteERSoRKSt6vectorISt10shared_ptrINS_15TraceCollectionEESaIS5_EE, ptr %14, align 8
  %15 = getelementptr inbounds nuw i8, ptr %5, i64 32
  store i8 0, ptr %15, align 8
  invoke void @_ZN32pxrInternal_v0_24__pxrReserved__18TfScopeDescriptionC1EPKcRKNS_13TfCallContextE(ptr noundef nonnull align 8 dereferenceable(104) %4, ptr noundef nonnull @.str, ptr noundef nonnull align 8 dereferenceable(33) %5)
          to label %16 unwind label %20

16:                                               ; preds = %11
  invoke void @_ZN32pxrInternal_v0_24__pxrReserved__8JsWriterC1ERSoNS0_5StyleE(ptr noundef nonnull align 8 dereferenceable(8) %6, ptr noundef nonnull align 8 dereferenceable(8) %0, i32 noundef 0)
          to label %17 unwind label %22

17:                                               ; preds = %16
  %18 = invoke noundef zeroext i1 @_ZN32pxrInternal_v0_24__pxrReserved__23Trace_JSONSerialization22WriteCollectionsToJSONERNS_8JsWriterERKSt6vectorISt10shared_ptrINS_15TraceCollectionEESaIS6_EE(ptr noundef nonnull align 8 dereferenceable(8) %6, ptr noundef nonnull align 8 dereferenceable(24) %1)
          to label %19 unwind label %24

19:                                               ; preds = %17
  call void @_ZN32pxrInternal_v0_24__pxrReserved__8JsWriterD1Ev(ptr noundef nonnull align 8 dereferenceable(8) %6) #8
  call void @_ZN32pxrInternal_v0_24__pxrReserved__18TfScopeDescriptionD1Ev(ptr noundef nonnull align 8 dereferenceable(104) %4) #8
  br label %27

20:                                               ; preds = %11
  %21 = landingpad { ptr, i32 }
          cleanup
  br label %64

22:                                               ; preds = %16
  %23 = landingpad { ptr, i32 }
          cleanup
  br label %26

24:                                               ; preds = %17
  %25 = landingpad { ptr, i32 }
          cleanup
  call void @_ZN32pxrInternal_v0_24__pxrReserved__8JsWriterD1Ev(ptr noundef nonnull align 8 dereferenceable(8) %6) #8
  br label %26

26:                                               ; preds = %24, %22
  %.pn = phi { ptr, i32 } [ %25, %24 ], [ %23, %22 ]
  call void @_ZN32pxrInternal_v0_24__pxrReserved__18TfScopeDescriptionD1Ev(ptr noundef nonnull align 8 dereferenceable(104) %4) #8
  br label %64

27:                                               ; preds = %2, %19
  %28 = getelementptr inbounds nuw i8, ptr %3, i64 8
  %29 = load ptr, ptr %28, align 8
  %.not.i.i.i.i = icmp eq ptr %29, null
  br i1 %.not.i.i.i.i, label %_ZN32pxrInternal_v0_24__pxrReserved__7JsValueD2Ev.exit, label %30

30:                                               ; preds = %27
  %31 = getelementptr inbounds nuw i8, ptr %29, i64 8
  %32 = load atomic i64, ptr %31 acquire, align 8
  %33 = icmp eq i64 %32, 4294967297
  %34 = trunc i64 %32 to i32
  br i1 %33, label %35, label %40

35:                                               ; preds = %30
  store i32 0, ptr %31, align 8
  %36 = getelementptr inbounds nuw i8, ptr %29, i64 12
  store i32 0, ptr %36, align 4
  %37 = load ptr, ptr %29, align 8
  %38 = getelementptr inbounds i8, ptr %37, i64 16
  %39 = load ptr, ptr %38, align 8
  call void %39(ptr noundef nonnull align 8 dereferenceable(16) %29) #8
  br label %_ZNSt16_Sp_counted_baseILN9__gnu_cxx12_Lock_policyE2EE24_M_release_last_use_coldEv.exit.sink.split.i.i.i.i.i

40:                                               ; preds = %30
  %41 = load i8, ptr @__libc_single_threaded, align 1
  %.not.i.i.i.i.i = icmp eq i8 %41, 0
  br i1 %.not.i.i.i.i.i, label %44, label %42

42:                                               ; preds = %40
  %43 = add nsw i32 %34, -1
  store i32 %43, ptr %31, align 4
  br label %46

44:                                               ; preds = %40
  %45 = atomicrmw volatile add ptr %31, i32 -1 acq_rel, align 4
  br label %46

46:                                               ; preds = %44, %42
  %.0.i.i.i.i.i = phi i32 [ %34, %42 ], [ %45, %44 ]
  %47 = icmp eq i32 %.0.i.i.i.i.i, 1
  br i1 %47, label %48, label %_ZN32pxrInternal_v0_24__pxrReserved__7JsValueD2Ev.exit

48:                                               ; preds = %46
  %49 = load ptr, ptr %29, align 8
  %50 = getelementptr inbounds i8, ptr %49, i64 16
  %51 = load ptr, ptr %50, align 8
  call void %51(ptr noundef nonnull align 8 dereferenceable(16) %29) #8
  %52 = getelementptr inbounds nuw i8, ptr %29, i64 12
  %53 = load i8, ptr @__libc_single_threaded, align 1
  %.not.i.i.i.i.i.i.i = icmp eq i8 %53, 0
  br i1 %.not.i.i.i.i.i.i.i, label %57, label %54

54:                                               ; preds = %48
  %55 = load i32, ptr %52, align 4
  %56 = add nsw i32 %55, -1
  store i32 %56, ptr %52, align 4
  br label %59

57:                                               ; preds = %48
  %58 = atomicrmw volatile add ptr %52, i32 -1 acq_rel, align 4
  br label %59

59:                                               ; preds = %57, %54
  %.0.i.i.i.i.i.i.i = phi i32 [ %55, %54 ], [ %58, %57 ]
  %60 = icmp eq i32 %.0.i.i.i.i.i.i.i, 1
  br i1 %60, label %_ZNSt16_Sp_counted_baseILN9__gnu_cxx12_Lock_policyE2EE24_M_release_last_use_coldEv.exit.sink.split.i.i.i.i.i, label %_ZN32pxrInternal_v0_24__pxrReserved__7JsValueD2Ev.exit

_ZNSt16_Sp_counted_baseILN9__gnu_cxx12_Lock_policyE2EE24_M_release_last_use_coldEv.exit.sink.split.i.i.i.i.i: ; preds = %59, %35
  %61 = load ptr, ptr %29, align 8
  %62 = getelementptr inbounds i8, ptr %61, i64 24
  %63 = load ptr, ptr %62, align 8
  call void %63(ptr noundef nonnull align 8 dereferenceable(16) %29) #8
  br label %_ZN32pxrInternal_v0_24__pxrReserved__7JsValueD2Ev.exit

_ZN32pxrInternal_v0_24__pxrReserved__7JsValueD2Ev.exit: ; preds = %27, %46, %59, %_ZNSt16_Sp_counted_baseILN9__gnu_cxx12_Lock_policyE2EE24_M_release_last_use_coldEv.exit.sink.split.i.i.i.i.i
  ret i1 %10

64:                                               ; preds = %26, %20
  %.pn.pn = phi { ptr, i32 } [ %.pn, %26 ], [ %21, %20 ]
  call void @_ZN32pxrInternal_v0_24__pxrReserved__7JsValueD2Ev(ptr noundef nonnull align 8 dereferenceable(16) %3) #8
  resume { ptr, i32 } %.pn.pn
}